target datalayout = "e-m:e-p270:32:32-p271:32:32-p272:64:64-i64:64-i128:128-f80:128-n8:16:32:64-S128"
target triple = "x86_64-pc-linux-gnu"

%struct.uv_udp_s = type { ptr, ptr, i32, ptr, %struct.uv__queue, %union.anon, ptr, i32, i64, i64, ptr, ptr, %struct.uv__io_s, %struct.uv__queue, %struct.uv__queue }
%union.anon = type { [4 x ptr] }
%struct.uv__io_s = type { ptr, %struct.uv__queue, %struct.uv__queue, i32, i32, i32 }
%struct.uv__queue = type { ptr, ptr }

; Function Attrs: nounwind uwtable
define dso_local i32 @uv_udp_set_broadcast(ptr noundef %0, i32 noundef %1) #0 {
  %3 = alloca i32, align 4
  %4 = alloca ptr, align 8
  %5 = alloca i32, align 4
  store ptr %0, ptr %4, align 8
  store i32 %1, ptr %5, align 4
  %6 = load ptr, ptr %4, align 8
  %7 = getelementptr inbounds nuw %struct.uv_udp_s, ptr %6, i32 0, i32 12
  %8 = getelementptr inbounds nuw %struct.uv__io_s, ptr %7, i32 0, i32 5
  %9 = load i32, ptr %8, align 8
  %10 = call i32 @setsockopt(i32 noundef %9, i32 noundef 1, i32 noundef 6, ptr noundef %5, i32 noundef 4) #10
  %11 = icmp ne i32 %10, 0
  br i1 %11, label %12, label %16

12:                                               ; preds = %2
  %13 = call ptr @__errno_location() #11
  %14 = load i32, ptr %13, align 4
  %15 = sub nsw i32 0, %14
  store i32 %15, ptr %3, align 4
  br label %17

16:                                               ; preds = %2
  store i32 0, ptr %3, align 4
  br label %17

17:                                               ; preds = %16, %12
  %18 = load i32, ptr %3, align 4
  ret i32 %18
}